target datalayout = "e-m:e-p270:32:32-p271:32:32-p272:64:64-i64:64-i128:128-f80:128-n8:16:32:64-S128"
target triple = "x86_64-pc-linux-gnu"

%struct.lv_color32_t = type { i8, i8, i8, i8 }

; Function Attrs: nounwind uwtable
define i32 @lv_color32_make(i8 noundef zeroext %0, i8 noundef zeroext %1, i8 noundef zeroext %2, i8 noundef zeroext %3) #0 {
  %5 = alloca %struct.lv_color32_t, align 1
  %6 = alloca i8, align 1
  %7 = alloca i8, align 1
  %8 = alloca i8, align 1
  %9 = alloca i8, align 1
  store i8 %0, ptr %6, align 1, !tbaa !7
  store i8 %1, ptr %7, align 1, !tbaa !7
  store i8 %2, ptr %8, align 1, !tbaa !7
  store i8 %3, ptr %9, align 1, !tbaa !7
  %10 = load i8, ptr %6, align 1, !tbaa !7
  %11 = getelementptr inbounds nuw %struct.lv_color32_t, ptr %5, i32 0, i32 2
  store i8 %10, ptr %11, align 1, !tbaa !13
  %12 = load i8, ptr %7, align 1, !tbaa !7
  %13 = getelementptr inbounds nuw %struct.lv_color32_t, ptr %5, i32 0, i32 1
  store i8 %12, ptr %13, align 1, !tbaa !16
  %14 = load i8, ptr %8, align 1, !tbaa !7
  %15 = getelementptr inbounds nuw %struct.lv_color32_t, ptr %5, i32 0, i32 0
  store i8 %14, ptr %15, align 1, !tbaa !18
  %16 = load i8, ptr %9, align 1, !tbaa !7
  %17 = getelementptr inbounds nuw %struct.lv_color32_t, ptr %5, i32 0, i32 3
  store i8 %16, ptr %17, align 1, !tbaa !19
  %18 = load i32, ptr %5, align 1
  ret i32 %18
}