; Function Attrs: mustprogress nofree norecurse nosync nounwind willreturn memory(none) uwtable
define i32 @lv_color32_make(i8 noundef zeroext %0, i8 noundef zeroext %1, i8 noundef zeroext %2, i8 noundef zeroext %3) local_unnamed_addr #1 {
  %.sroa.4.0.insert.ext = zext i8 %3 to i32
  %.sroa.4.0.insert.shift = shl nuw i32 %.sroa.4.0.insert.ext, 24
  %.sroa.3.0.insert.ext = zext i8 %0 to i32
  %.sroa.3.0.insert.shift = shl nuw nsw i32 %.sroa.3.0.insert.ext, 16
  %.sroa.3.0.insert.insert = or disjoint i32 %.sroa.4.0.insert.shift, %.sroa.3.0.insert.shift
  %.sroa.2.0.insert.ext = zext i8 %1 to i32
  %.sroa.2.0.insert.shift = shl nuw nsw i32 %.sroa.2.0.insert.ext, 8
  %.sroa.2.0.insert.insert = or disjoint i32 %.sroa.3.0.insert.insert, %.sroa.2.0.insert.shift
  %.sroa.0.0.insert.ext = zext i8 %2 to i32
  %.sroa.0.0.insert.insert = or disjoint i32 %.sroa.2.0.insert.insert, %.sroa.0.0.insert.ext
  ret i32 %.sroa.0.0.insert.insert
}